; Function Attrs: mustprogress nofree norecurse nosync nounwind willreturn memory(readwrite, inaccessiblemem: none) uwtable
define void @_ZN5arrow17Decimal128Builder12UnsafeAppendESt17basic_string_viewIcSt11char_traitsIcEE(ptr nocapture noundef nonnull align 8 dereferenceable(224) %this, i64 %value.coerce0, ptr nocapture readonly %value.coerce1) local_unnamed_addr #4 align 2 {
entry:
  %data_.i.i.i.i.i.i = getelementptr inbounds i8, ptr %this, i64 48
  %0 = load ptr, ptr %data_.i.i.i.i.i.i, align 8
  %bit_length_.i.i.i.i = getelementptr inbounds i8, ptr %this, i64 80
  %1 = load i64, ptr %bit_length_.i.i.i.i, align 8
  %div.i.i.i.i.i = sdiv i64 %1, 8
  %arrayidx.i.i.i.i.i = getelementptr inbounds i8, ptr %0, i64 %div.i.i.i.i.i
  %2 = load i8, ptr %arrayidx.i.i.i.i.i, align 1
  %rem.i.i.i.i.i = srem i64 %1, 8
  %arrayidx5.i.i.i.i.i = getelementptr inbounds [8 x i8], ptr @_ZN5arrow8bit_utilL8kBitmaskE, i64 0, i64 %rem.i.i.i.i.i
  %3 = load i8, ptr %arrayidx5.i.i.i.i.i, align 1
  %xor105.i.i.i.i.i = or i8 %3, %2
  store i8 %xor105.i.i.i.i.i, ptr %arrayidx.i.i.i.i.i, align 1
  %4 = load i64, ptr %bit_length_.i.i.i.i, align 8
  %inc4.i2.i.i.i = add nsw i64 %4, 1
  store i64 %inc4.i2.i.i.i, ptr %bit_length_.i.i.i.i, align 8
  %length_3.i.i.i = getelementptr inbounds i8, ptr %this, i64 104
  %5 = load i64, ptr %length_3.i.i.i, align 8
  %inc4.i.i.i = add nsw i64 %5, 1
  store i64 %inc4.i.i.i, ptr %length_3.i.i.i, align 8
  %byte_width_.i.i = getelementptr inbounds i8, ptr %this, i64 144
  %6 = load i32, ptr %byte_width_.i.i, align 8
  %cmp.i.i = icmp sgt i32 %6, 0
  br i1 %cmp.i.i, label %if.then.i.i, label %_ZN5arrow22FixedSizeBinaryBuilder12UnsafeAppendESt17basic_string_viewIcSt11char_traitsIcEE.exit

if.then.i.i:                                      ; preds = %entry
  %conv.i.i = zext nneg i32 %6 to i64
  %data_.i.i.i = getelementptr inbounds i8, ptr %this, i64 176
  %7 = load ptr, ptr %data_.i.i.i, align 8
  %size_.i.i.i = getelementptr inbounds i8, ptr %this, i64 192
  %8 = load i64, ptr %size_.i.i.i, align 8
  %add.ptr.i.i.i = getelementptr inbounds i8, ptr %7, i64 %8
  tail call void @llvm.memcpy.p0.p0.i64(ptr align 1 %add.ptr.i.i.i, ptr align 1 %value.coerce1, i64 %conv.i.i, i1 false)
  %9 = load i64, ptr %size_.i.i.i, align 8
  %add.i.i.i = add nsw i64 %9, %conv.i.i
  store i64 %add.i.i.i, ptr %size_.i.i.i, align 8
  br label %_ZN5arrow22FixedSizeBinaryBuilder12UnsafeAppendESt17basic_string_viewIcSt11char_traitsIcEE.exit

_ZN5arrow22FixedSizeBinaryBuilder12UnsafeAppendESt17basic_string_viewIcSt11char_traitsIcEE.exit: ; preds = %entry, %if.then.i.i
  ret void
}